; Function Attrs: mustprogress uwtable
define noundef i32 @_Z48tsi_ssl_extract_x509_subject_names_from_pem_certPKcP8tsi_peer(ptr noundef %0, ptr noundef %1) local_unnamed_addr #3 personality ptr @__gxx_personality_v0 {
  %3 = alloca %"class.absl::lts_20240722::log_internal::LogMessage", align 8
  %4 = tail call i64 @strlen(ptr noundef nonnull dereferenceable(1) %0) #31
  %sext = shl i64 %4, 32
  %5 = ashr exact i64 %sext, 32
  %6 = tail call ptr @BIO_new_mem_buf(ptr noundef nonnull %0, i64 noundef %5)
  %7 = icmp eq ptr %6, null
  br i1 %7, label %18, label %8

8:                                                ; preds = %2
  %9 = tail call ptr @PEM_read_bio_X509(ptr noundef nonnull %6, ptr noundef null, ptr noundef null, ptr noundef nonnull @.str)
  %10 = icmp eq ptr %9, null
  br i1 %10, label %11, label %14

11:                                               ; preds = %8
  call void @llvm.lifetime.start.p0(i64 16, ptr nonnull %3) #32
  call void @_ZN4absl12lts_2024072212log_internal10LogMessageC1EPKciNS2_8ErrorTagE(ptr noundef nonnull align 8 dereferenceable(16) %3, ptr noundef nonnull @.str.1, i32 noundef 849) #33
  invoke void @_ZN4absl12lts_2024072212log_internal10LogMessage19CopyToEncodedBufferILNS2_10StringTypeE0EEEvSt17basic_string_viewIcSt11char_traitsIcEE(ptr noundef nonnull align 8 dereferenceable(16) %3, i64 19, ptr nonnull @.str.2)
          to label %.thread unwind label %12

.thread:                                          ; preds = %11
  call void @_ZN4absl12lts_2024072212log_internal10LogMessageD1Ev(ptr noundef nonnull align 8 dereferenceable(16) %3) #34
  call void @llvm.lifetime.end.p0(i64 16, ptr nonnull %3) #32
  br label %16

12:                                               ; preds = %11
  %13 = landingpad { ptr, i32 }
          cleanup
  call void @_ZN4absl12lts_2024072212log_internal10LogMessageD1Ev(ptr noundef nonnull align 8 dereferenceable(16) %3) #34
  call void @llvm.lifetime.end.p0(i64 16, ptr nonnull %3) #32
  resume { ptr, i32 } %13

14:                                               ; preds = %8
  %15 = tail call fastcc noundef i32 @_ZL14peer_from_x509P7x509_stiP8tsi_peer(ptr noundef %9, i32 noundef 0, ptr noundef %1)
  tail call void @X509_free(ptr noundef nonnull %9)
  br label %16

16:                                               ; preds = %.thread, %14
  %.01317 = phi i32 [ 2, %.thread ], [ %15, %14 ]
  %17 = call i32 @BIO_free(ptr noundef nonnull %6)
  br label %18

18:                                               ; preds = %2, %16
  %.0 = phi i32 [ %.01317, %16 ], [ 12, %2 ]
  ret i32 %.0
}